target datalayout = "e-m:e-p270:32:32-p271:32:32-p272:64:64-i64:64-i128:128-f80:128-n8:16:32:64-S128"
target triple = "x86_64-pc-linux-gnu"

%"class.std::ios_base::Init" = type { i8 }

@__dso_handle = external hidden global i8
@_ZZN9benchmark8internal17InitializeStreamsEvE4init = internal global %"class.std::ios_base::Init" zeroinitializer, align 1
@_ZGVZN9benchmark8internal17InitializeStreamsEvE4init = internal global i64 0, align 8

; Function Attrs: mustprogress uwtable
define noundef i32 @_ZN9benchmark8internal17InitializeStreamsEv() #1 personality ptr @__gxx_personality_v0 {
  %1 = alloca ptr, align 8
  %2 = alloca i32, align 4
  %3 = load atomic i8, ptr @_ZGVZN9benchmark8internal17InitializeStreamsEvE4init acquire, align 8
  %4 = icmp eq i8 %3, 0
  br i1 %4, label %5, label %11, !prof !7

5:                                                ; preds = %0
  %6 = call i32 @__cxa_guard_acquire(ptr @_ZGVZN9benchmark8internal17InitializeStreamsEvE4init) #4
  %7 = icmp ne i32 %6, 0
  br i1 %7, label %8, label %11

8:                                                ; preds = %5
  invoke void @_ZNSt8ios_base4InitC1Ev(ptr noundef nonnull align 1 dereferenceable(1) @_ZZN9benchmark8internal17InitializeStreamsEvE4init)
          to label %9 unwind label %12

9:                                                ; preds = %8
  %10 = call i32 @__cxa_atexit(ptr @_ZNSt8ios_base4InitD1Ev, ptr @_ZZN9benchmark8internal17InitializeStreamsEvE4init, ptr @__dso_handle) #4
  call void @__cxa_guard_release(ptr @_ZGVZN9benchmark8internal17InitializeStreamsEvE4init) #4
  br label %11

11:                                               ; preds = %9, %5, %0
  ret i32 0

12:                                               ; preds = %8
  %13 = landingpad { ptr, i32 }
          cleanup
  %14 = extractvalue { ptr, i32 } %13, 0
  store ptr %14, ptr %1, align 8
  %15 = extractvalue { ptr, i32 } %13, 1
  store i32 %15, ptr %2, align 4
  call void @__cxa_guard_abort(ptr @_ZGVZN9benchmark8internal17InitializeStreamsEvE4init) #4
  br label %16

16:                                               ; preds = %12
  %17 = load ptr, ptr %1, align 8
  %18 = load i32, ptr %2, align 4
  %19 = insertvalue { ptr, i32 } poison, ptr %17, 0
  %20 = insertvalue { ptr, i32 } %19, i32 %18, 1
  resume { ptr, i32 } %20
}