; Function Attrs: mustprogress uwtable
define noundef i32 @_ZN9benchmark8internal17InitializeStreamsEv() local_unnamed_addr #0 personality ptr @__gxx_personality_v0 {
  %1 = load atomic i8, ptr @_ZGVZN9benchmark8internal17InitializeStreamsEvE4init acquire, align 8
  %2 = icmp eq i8 %1, 0
  br i1 %2, label %3, label %8, !prof !3

3:                                                ; preds = %0
  %4 = tail call i32 @__cxa_guard_acquire(ptr nonnull @_ZGVZN9benchmark8internal17InitializeStreamsEvE4init) #32
  %.not = icmp eq i32 %4, 0
  br i1 %.not, label %8, label %5

5:                                                ; preds = %3
  invoke void @_ZNSt8ios_base4InitC1Ev(ptr noundef nonnull align 1 dereferenceable(1) @_ZZN9benchmark8internal17InitializeStreamsEvE4init)
          to label %6 unwind label %9

6:                                                ; preds = %5
  %7 = tail call i32 @__cxa_atexit(ptr nonnull @_ZNSt8ios_base4InitD1Ev, ptr nonnull @_ZZN9benchmark8internal17InitializeStreamsEvE4init, ptr nonnull @__dso_handle) #32
  tail call void @__cxa_guard_release(ptr nonnull @_ZGVZN9benchmark8internal17InitializeStreamsEvE4init) #32
  br label %8

8:                                                ; preds = %6, %3, %0
  ret i32 0

9:                                                ; preds = %5
  %10 = landingpad { ptr, i32 }
          cleanup
  tail call void @__cxa_guard_abort(ptr nonnull @_ZGVZN9benchmark8internal17InitializeStreamsEvE4init) #32
  resume { ptr, i32 } %10
}